; Function Attrs: nounwind sspstrong uwtable
define internal fastcc range(i32 0, 2) i32 @subx(i64 noundef %0, i64 noundef %1, i64 noundef %2, i64 noundef %3, ptr noundef readonly captures(none) %4) unnamed_addr #0 {
  %.pr.i = load i64, ptr @subx.rbimpl_id, align 8, !tbaa !6
  %.not4.i = icmp eq i64 %.pr.i, 0
  br i1 %.not4.i, label %.lr.ph.i, label %rbimpl_intern_const.exit

.lr.ph.i:                                         ; preds = %5, %.lr.ph.i
  %6 = tail call i64 @rb_intern2(ptr noundef nonnull @.str.41, i64 noundef 5) #13
  store i64 %6, ptr @subx.rbimpl_id, align 8, !tbaa !6
  %.not.i = icmp eq i64 %6, 0
  br i1 %.not.i, label %.lr.ph.i, label %rbimpl_intern_const.exit, !llvm.loop !36

rbimpl_intern_const.exit:                         ; preds = %.lr.ph.i, %5
  %.lcssa.i = phi i64 [ %.pr.i, %5 ], [ %6, %.lr.ph.i ]
  %7 = tail call i64 (i64, i64, i32, ...) @rb_funcall(i64 noundef %2, i64 noundef %.lcssa.i, i32 noundef 1, i64 noundef %0) #13
  %8 = icmp eq i64 %7, 4
  br i1 %8, label %34, label %9

9:                                                ; preds = %rbimpl_intern_const.exit
  %.pr.i17 = load i64, ptr @subx.rbimpl_id.42, align 8, !tbaa !6
  %.not4.i18 = icmp eq i64 %.pr.i17, 0
  br i1 %.not4.i18, label %.lr.ph.i20, label %rbimpl_intern_const.exit22

.lr.ph.i20:                                       ; preds = %9, %.lr.ph.i20
  %10 = tail call i64 @rb_intern2(ptr noundef nonnull @.str.43, i64 noundef 5) #13
  store i64 %10, ptr @subx.rbimpl_id.42, align 8, !tbaa !6
  %.not.i21 = icmp eq i64 %10, 0
  br i1 %.not.i21, label %.lr.ph.i20, label %rbimpl_intern_const.exit22, !llvm.loop !36

rbimpl_intern_const.exit22:                       ; preds = %.lr.ph.i20, %9
  %.lcssa.i19 = phi i64 [ %.pr.i17, %9 ], [ %10, %.lr.ph.i20 ]
  %11 = tail call i64 (i64, i64, i32, ...) @rb_funcall(i64 noundef %7, i64 noundef %.lcssa.i19, i32 noundef 1, i64 noundef 1) #13
  %.pr.i23 = load i64, ptr @subx.rbimpl_id.44, align 8, !tbaa !6
  %.not4.i24 = icmp eq i64 %.pr.i23, 0
  br i1 %.not4.i24, label %.lr.ph.i26, label %rbimpl_intern_const.exit28

.lr.ph.i26:                                       ; preds = %rbimpl_intern_const.exit22, %.lr.ph.i26
  %12 = tail call i64 @rb_intern2(ptr noundef nonnull @.str.45, i64 noundef 3) #13
  store i64 %12, ptr @subx.rbimpl_id.44, align 8, !tbaa !6
  %.not.i27 = icmp eq i64 %12, 0
  br i1 %.not.i27, label %.lr.ph.i26, label %rbimpl_intern_const.exit28, !llvm.loop !36

rbimpl_intern_const.exit28:                       ; preds = %.lr.ph.i26, %rbimpl_intern_const.exit22
  %.lcssa.i25 = phi i64 [ %.pr.i23, %rbimpl_intern_const.exit22 ], [ %12, %.lr.ph.i26 ]
  %13 = tail call i64 (i64, i64, i32, ...) @rb_funcall(i64 noundef %7, i64 noundef %.lcssa.i25, i32 noundef 1, i64 noundef 1) #13
  %.pr.i29 = load i64, ptr @subx.rbimpl_id.46, align 8, !tbaa !6
  %.not4.i30 = icmp eq i64 %.pr.i29, 0
  br i1 %.not4.i30, label %.lr.ph.i32, label %rbimpl_intern_const.exit34

.lr.ph.i32:                                       ; preds = %rbimpl_intern_const.exit28, %.lr.ph.i32
  %14 = tail call i64 @rb_intern2(ptr noundef nonnull @.str.47, i64 noundef 3) #13
  store i64 %14, ptr @subx.rbimpl_id.46, align 8, !tbaa !6
  %.not.i33 = icmp eq i64 %14, 0
  br i1 %.not.i33, label %.lr.ph.i32, label %rbimpl_intern_const.exit34, !llvm.loop !36

rbimpl_intern_const.exit34:                       ; preds = %.lr.ph.i32, %rbimpl_intern_const.exit28
  %.lcssa.i31 = phi i64 [ %.pr.i29, %rbimpl_intern_const.exit28 ], [ %14, %.lr.ph.i32 ]
  %15 = and i64 %13, 1
  %.not.i35 = icmp eq i64 %15, 0
  br i1 %.not.i35, label %18, label %16

16:                                               ; preds = %rbimpl_intern_const.exit34
  %17 = ashr i64 %13, 1
  br label %rb_num2long_inline.exit

18:                                               ; preds = %rbimpl_intern_const.exit34
  %19 = tail call i64 @rb_num2long(i64 noundef %13) #13
  br label %rb_num2long_inline.exit

rb_num2long_inline.exit:                          ; preds = %16, %18
  %.0.i = phi i64 [ %17, %16 ], [ %19, %18 ]
  %20 = and i64 %11, 1
  %.not.i36 = icmp eq i64 %20, 0
  br i1 %.not.i36, label %23, label %21

21:                                               ; preds = %rb_num2long_inline.exit
  %22 = ashr i64 %11, 1
  br label %rb_num2long_inline.exit38

23:                                               ; preds = %rb_num2long_inline.exit
  %24 = tail call i64 @rb_num2long(i64 noundef %11) #13
  br label %rb_num2long_inline.exit38

rb_num2long_inline.exit38:                        ; preds = %21, %23
  %.0.i37 = phi i64 [ %22, %21 ], [ %24, %23 ]
  %25 = sub nsw i64 %.0.i, %.0.i37
  %26 = add i64 %25, 4611686018427387904
  %or.cond.i = icmp sgt i64 %26, -1
  br i1 %or.cond.i, label %27, label %30

27:                                               ; preds = %rb_num2long_inline.exit38
  %28 = shl nsw i64 %25, 1
  %29 = or disjoint i64 %28, 1
  br label %rb_long2num_inline.exit

30:                                               ; preds = %rb_num2long_inline.exit38
  %31 = tail call i64 @rb_int2big(i64 noundef %25) #13
  br label %rb_long2num_inline.exit

rb_long2num_inline.exit:                          ; preds = %27, %30
  %.0.i39 = phi i64 [ %29, %27 ], [ %31, %30 ]
  %32 = tail call i64 (i64, i64, i32, ...) @rb_funcall(i64 noundef %0, i64 noundef %.lcssa.i31, i32 noundef 3, i64 noundef %11, i64 noundef %.0.i39, i64 noundef %1) #13
  %33 = tail call i32 %4(i64 noundef %7, i64 noundef %3) #13
  br label %34

34:                                               ; preds = %rbimpl_intern_const.exit, %rb_long2num_inline.exit
  %.0 = phi i32 [ 1, %rb_long2num_inline.exit ], [ 0, %rbimpl_intern_const.exit ]
  ret i32 %.0
}